
secret_leak:     file format elf64-x86-64


Disassembly of section .init:

0000000000001000 <_init>:
    1000:	f3 0f 1e fa          	endbr64 
    1004:	48 83 ec 08          	sub    $0x8,%rsp
    1008:	48 8b 05 d9 2f 00 00 	mov    0x2fd9(%rip),%rax        # 3fe8 <__gmon_start__@Base>
    100f:	48 85 c0             	test   %rax,%rax
    1012:	74 02                	je     1016 <_init+0x16>
    1014:	ff d0                	call   *%rax
    1016:	48 83 c4 08          	add    $0x8,%rsp
    101a:	c3                   	ret    

Disassembly of section .plt:

0000000000001020 <.plt>:
    1020:	ff 35 82 2f 00 00    	push   0x2f82(%rip)        # 3fa8 <_GLOBAL_OFFSET_TABLE_+0x8>
    1026:	f2 ff 25 83 2f 00 00 	bnd jmp *0x2f83(%rip)        # 3fb0 <_GLOBAL_OFFSET_TABLE_+0x10>
    102d:	0f 1f 00             	nopl   (%rax)
    1030:	f3 0f 1e fa          	endbr64 
    1034:	68 00 00 00 00       	push   $0x0
    1039:	f2 e9 e1 ff ff ff    	bnd jmp 1020 <_init+0x20>
    103f:	90                   	nop
    1040:	f3 0f 1e fa          	endbr64 
    1044:	68 01 00 00 00       	push   $0x1
    1049:	f2 e9 d1 ff ff ff    	bnd jmp 1020 <_init+0x20>
    104f:	90                   	nop
    1050:	f3 0f 1e fa          	endbr64 
    1054:	68 02 00 00 00       	push   $0x2
    1059:	f2 e9 c1 ff ff ff    	bnd jmp 1020 <_init+0x20>
    105f:	90                   	nop
    1060:	f3 0f 1e fa          	endbr64 
    1064:	68 03 00 00 00       	push   $0x3
    1069:	f2 e9 b1 ff ff ff    	bnd jmp 1020 <_init+0x20>
    106f:	90                   	nop

Disassembly of section .plt.got:

0000000000001070 <__cxa_finalize@plt>:
    1070:	f3 0f 1e fa          	endbr64 
    1074:	f2 ff 25 7d 2f 00 00 	bnd jmp *0x2f7d(%rip)        # 3ff8 <__cxa_finalize@GLIBC_2.2.5>
    107b:	0f 1f 44 00 00       	nopl   0x0(%rax,%rax,1)

Disassembly of section .plt.sec:

0000000000001080 <strncpy@plt>:
    1080:	f3 0f 1e fa          	endbr64 
    1084:	f2 ff 25 2d 2f 00 00 	bnd jmp *0x2f2d(%rip)        # 3fb8 <strncpy@GLIBC_2.2.5>
    108b:	0f 1f 44 00 00       	nopl   0x0(%rax,%rax,1)

0000000000001090 <strlen@plt>:
    1090:	f3 0f 1e fa          	endbr64 
    1094:	f2 ff 25 25 2f 00 00 	bnd jmp *0x2f25(%rip)        # 3fc0 <strlen@GLIBC_2.2.5>
    109b:	0f 1f 44 00 00       	nopl   0x0(%rax,%rax,1)

00000000000010a0 <__stack_chk_fail@plt>:
    10a0:	f3 0f 1e fa          	endbr64 
    10a4:	f2 ff 25 1d 2f 00 00 	bnd jmp *0x2f1d(%rip)        # 3fc8 <__stack_chk_fail@GLIBC_2.4>
    10ab:	0f 1f 44 00 00       	nopl   0x0(%rax,%rax,1)

00000000000010b0 <__printf_chk@plt>:
    10b0:	f3 0f 1e fa          	endbr64 
    10b4:	f2 ff 25 15 2f 00 00 	bnd jmp *0x2f15(%rip)        # 3fd0 <__printf_chk@GLIBC_2.3.4>
    10bb:	0f 1f 44 00 00       	nopl   0x0(%rax,%rax,1)

Disassembly of section .text:

00000000000010c0 <_start>:
    10c0:	f3 0f 1e fa          	endbr64 
    10c4:	31 ed                	xor    %ebp,%ebp
    10c6:	49 89 d1             	mov    %rdx,%r9
    10c9:	5e                   	pop    %rsi
    10ca:	48 89 e2             	mov    %rsp,%rdx
    10cd:	48 83 e4 f0          	and    $0xfffffffffffffff0,%rsp
    10d1:	50                   	push   %rax
    10d2:	54                   	push   %rsp
    10d3:	45 31 c0             	xor    %r8d,%r8d
    10d6:	31 c9                	xor    %ecx,%ecx
    10d8:	48 8d 3d 02 02 00 00 	lea    0x202(%rip),%rdi        # 12e1 <main>
    10df:	ff 15 f3 2e 00 00    	call   *0x2ef3(%rip)        # 3fd8 <__libc_start_main@GLIBC_2.34>
    10e5:	f4                   	hlt    
    10e6:	66 2e 0f 1f 84 00 00 	cs nopw 0x0(%rax,%rax,1)
    10ed:	00 00 00 

00000000000010f0 <deregister_tm_clones>:
    10f0:	48 8d 3d 19 2f 00 00 	lea    0x2f19(%rip),%rdi        # 4010 <__TMC_END__>
    10f7:	48 8d 05 12 2f 00 00 	lea    0x2f12(%rip),%rax        # 4010 <__TMC_END__>
    10fe:	48 39 f8             	cmp    %rdi,%rax
    1101:	74 15                	je     1118 <deregister_tm_clones+0x28>
    1103:	48 8b 05 d6 2e 00 00 	mov    0x2ed6(%rip),%rax        # 3fe0 <_ITM_deregisterTMCloneTable@Base>
    110a:	48 85 c0             	test   %rax,%rax
    110d:	74 09                	je     1118 <deregister_tm_clones+0x28>
    110f:	ff e0                	jmp    *%rax
    1111:	0f 1f 80 00 00 00 00 	nopl   0x0(%rax)
    1118:	c3                   	ret    
    1119:	0f 1f 80 00 00 00 00 	nopl   0x0(%rax)

0000000000001120 <register_tm_clones>:
    1120:	48 8d 3d e9 2e 00 00 	lea    0x2ee9(%rip),%rdi        # 4010 <__TMC_END__>
    1127:	48 8d 35 e2 2e 00 00 	lea    0x2ee2(%rip),%rsi        # 4010 <__TMC_END__>
    112e:	48 29 fe             	sub    %rdi,%rsi
    1131:	48 89 f0             	mov    %rsi,%rax
    1134:	48 c1 ee 3f          	shr    $0x3f,%rsi
    1138:	48 c1 f8 03          	sar    $0x3,%rax
    113c:	48 01 c6             	add    %rax,%rsi
    113f:	48 d1 fe             	sar    %rsi
    1142:	74 14                	je     1158 <register_tm_clones+0x38>
    1144:	48 8b 05 a5 2e 00 00 	mov    0x2ea5(%rip),%rax        # 3ff0 <_ITM_registerTMCloneTable@Base>
    114b:	48 85 c0             	test   %rax,%rax
    114e:	74 08                	je     1158 <register_tm_clones+0x38>
    1150:	ff e0                	jmp    *%rax
    1152:	66 0f 1f 44 00 00    	nopw   0x0(%rax,%rax,1)
    1158:	c3                   	ret    
    1159:	0f 1f 80 00 00 00 00 	nopl   0x0(%rax)

0000000000001160 <__do_global_dtors_aux>:
    1160:	f3 0f 1e fa          	endbr64 
    1164:	80 3d a5 2e 00 00 00 	cmpb   $0x0,0x2ea5(%rip)        # 4010 <__TMC_END__>
    116b:	75 2b                	jne    1198 <__do_global_dtors_aux+0x38>
    116d:	55                   	push   %rbp
    116e:	48 83 3d 82 2e 00 00 	cmpq   $0x0,0x2e82(%rip)        # 3ff8 <__cxa_finalize@GLIBC_2.2.5>
    1175:	00 
    1176:	48 89 e5             	mov    %rsp,%rbp
    1179:	74 0c                	je     1187 <__do_global_dtors_aux+0x27>
    117b:	48 8b 3d 86 2e 00 00 	mov    0x2e86(%rip),%rdi        # 4008 <__dso_handle>
    1182:	e8 e9 fe ff ff       	call   1070 <__cxa_finalize@plt>
    1187:	e8 64 ff ff ff       	call   10f0 <deregister_tm_clones>
    118c:	c6 05 7d 2e 00 00 01 	movb   $0x1,0x2e7d(%rip)        # 4010 <__TMC_END__>
    1193:	5d                   	pop    %rbp
    1194:	c3                   	ret    
    1195:	0f 1f 00             	nopl   (%rax)
    1198:	c3                   	ret    
    1199:	0f 1f 80 00 00 00 00 	nopl   0x0(%rax)

00000000000011a0 <frame_dummy>:
    11a0:	f3 0f 1e fa          	endbr64 
    11a4:	e9 77 ff ff ff       	jmp    1120 <register_tm_clones>

00000000000011a9 <init_secret>:
    11a9:	f3 0f 1e fa          	endbr64 
    11ad:	48 81 ec 98 00 00 00 	sub    $0x98,%rsp
    11b4:	64 48 8b 04 25 28 00 	mov    %fs:0x28,%rax
    11bb:	00 00 
    11bd:	48 89 84 24 88 00 00 	mov    %rax,0x88(%rsp)
    11c4:	00 
    11c5:	31 c0                	xor    %eax,%eax
    11c7:	48 b8 41 41 41 41 41 	movabs $0x4141414141414141,%rax
    11ce:	41 41 41 
    11d1:	48 ba 41 41 41 41 41 	movabs $0x4141414141414141,%rdx
    11d8:	41 41 41 
    11db:	48 89 04 24          	mov    %rax,(%rsp)
    11df:	48 89 54 24 08       	mov    %rdx,0x8(%rsp)
    11e4:	48 89 44 24 10       	mov    %rax,0x10(%rsp)
    11e9:	48 89 54 24 18       	mov    %rdx,0x18(%rsp)
    11ee:	48 89 44 24 20       	mov    %rax,0x20(%rsp)
    11f3:	48 89 54 24 28       	mov    %rdx,0x28(%rsp)
    11f8:	48 89 44 24 30       	mov    %rax,0x30(%rsp)
    11fd:	48 89 54 24 38       	mov    %rdx,0x38(%rsp)
    1202:	48 89 44 24 40       	mov    %rax,0x40(%rsp)
    1207:	48 89 54 24 48       	mov    %rdx,0x48(%rsp)
    120c:	48 89 44 24 50       	mov    %rax,0x50(%rsp)
    1211:	48 89 54 24 58       	mov    %rdx,0x58(%rsp)
    1216:	48 89 44 24 60       	mov    %rax,0x60(%rsp)
    121b:	48 89 54 24 68       	mov    %rdx,0x68(%rsp)
    1220:	48 89 44 24 70       	mov    %rax,0x70(%rsp)
    1225:	48 89 54 24 78       	mov    %rdx,0x78(%rsp)
    122a:	c6 44 24 7f 00       	movb   $0x0,0x7f(%rsp)
    122f:	48 8d 35 ce 0d 00 00 	lea    0xdce(%rip),%rsi        # 2004 <_IO_stdin_used+0x4>
    1236:	bf 01 00 00 00       	mov    $0x1,%edi
    123b:	b8 00 00 00 00       	mov    $0x0,%eax
    1240:	e8 6b fe ff ff       	call   10b0 <__printf_chk@plt>
    1245:	48 8b 84 24 88 00 00 	mov    0x88(%rsp),%rax
    124c:	00 
    124d:	64 48 2b 04 25 28 00 	sub    %fs:0x28,%rax
    1254:	00 00 
    1256:	75 08                	jne    1260 <init_secret+0xb7>
    1258:	48 81 c4 98 00 00 00 	add    $0x98,%rsp
    125f:	c3                   	ret    
    1260:	e8 3b fe ff ff       	call   10a0 <__stack_chk_fail@plt>

0000000000001265 <show_argument>:
    1265:	f3 0f 1e fa          	endbr64 
    1269:	53                   	push   %rbx
    126a:	48 81 ec 90 00 00 00 	sub    $0x90,%rsp
    1271:	48 89 fb             	mov    %rdi,%rbx
    1274:	64 48 8b 04 25 28 00 	mov    %fs:0x28,%rax
    127b:	00 00 
    127d:	48 89 84 24 88 00 00 	mov    %rax,0x88(%rsp)
    1284:	00 
    1285:	31 c0                	xor    %eax,%eax
    1287:	e8 04 fe ff ff       	call   1090 <strlen@plt>
    128c:	85 c0                	test   %eax,%eax
    128e:	7f 35                	jg     12c5 <show_argument+0x60>
    1290:	48 89 e2             	mov    %rsp,%rdx
    1293:	48 8d 35 88 0d 00 00 	lea    0xd88(%rip),%rsi        # 2022 <_IO_stdin_used+0x22>
    129a:	bf 01 00 00 00       	mov    $0x1,%edi
    129f:	b8 00 00 00 00       	mov    $0x0,%eax
    12a4:	e8 07 fe ff ff       	call   10b0 <__printf_chk@plt>
    12a9:	48 8b 84 24 88 00 00 	mov    0x88(%rsp),%rax
    12b0:	00 
    12b1:	64 48 2b 04 25 28 00 	sub    %fs:0x28,%rax
    12b8:	00 00 
    12ba:	75 20                	jne    12dc <show_argument+0x77>
    12bc:	48 81 c4 90 00 00 00 	add    $0x90,%rsp
    12c3:	5b                   	pop    %rbx
    12c4:	c3                   	ret    
    12c5:	48 89 e7             	mov    %rsp,%rdi
    12c8:	ba 7f 00 00 00       	mov    $0x7f,%edx
    12cd:	48 89 de             	mov    %rbx,%rsi
    12d0:	e8 ab fd ff ff       	call   1080 <strncpy@plt>
    12d5:	c6 44 24 7f 00       	movb   $0x0,0x7f(%rsp)
    12da:	eb b4                	jmp    1290 <show_argument+0x2b>
    12dc:	e8 bf fd ff ff       	call   10a0 <__stack_chk_fail@plt>

00000000000012e1 <main>:
    12e1:	f3 0f 1e fa          	endbr64 
    12e5:	41 55                	push   %r13
    12e7:	41 54                	push   %r12
    12e9:	55                   	push   %rbp
    12ea:	53                   	push   %rbx
    12eb:	48 83 ec 08          	sub    $0x8,%rsp
    12ef:	41 89 fc             	mov    %edi,%r12d
    12f2:	49 89 f5             	mov    %rsi,%r13
    12f5:	89 fa                	mov    %edi,%edx
    12f7:	48 8d 35 2e 0d 00 00 	lea    0xd2e(%rip),%rsi        # 202c <_IO_stdin_used+0x2c>
    12fe:	bf 01 00 00 00       	mov    $0x1,%edi
    1303:	b8 00 00 00 00       	mov    $0x0,%eax
    1308:	e8 a3 fd ff ff       	call   10b0 <__printf_chk@plt>
    130d:	bb 00 00 00 00       	mov    $0x0,%ebx
    1312:	eb 31                	jmp    1345 <main+0x64>
    1314:	48 63 c3             	movslq %ebx,%rax
    1317:	49 8b 6c c5 00       	mov    0x0(%r13,%rax,8),%rbp
    131c:	48 89 ef             	mov    %rbp,%rdi
    131f:	e8 6c fd ff ff       	call   1090 <strlen@plt>
    1324:	49 89 c0             	mov    %rax,%r8
    1327:	48 89 e9             	mov    %rbp,%rcx
    132a:	89 da                	mov    %ebx,%edx
    132c:	48 8d 35 02 0d 00 00 	lea    0xd02(%rip),%rsi        # 2035 <_IO_stdin_used+0x35>
    1333:	bf 01 00 00 00       	mov    $0x1,%edi
    1338:	b8 00 00 00 00       	mov    $0x0,%eax
    133d:	e8 6e fd ff ff       	call   10b0 <__printf_chk@plt>
    1342:	83 c3 01             	add    $0x1,%ebx
    1345:	44 39 e3             	cmp    %r12d,%ebx
    1348:	7c ca                	jl     1314 <main+0x33>
    134a:	b8 00 00 00 00       	mov    $0x0,%eax
    134f:	e8 55 fe ff ff       	call   11a9 <init_secret>
    1354:	41 83 fc 01          	cmp    $0x1,%r12d
    1358:	7f 10                	jg     136a <main+0x89>
    135a:	b8 00 00 00 00       	mov    $0x0,%eax
    135f:	48 83 c4 08          	add    $0x8,%rsp
    1363:	5b                   	pop    %rbx
    1364:	5d                   	pop    %rbp
    1365:	41 5c                	pop    %r12
    1367:	41 5d                	pop    %r13
    1369:	c3                   	ret    
    136a:	49 8b 7d 08          	mov    0x8(%r13),%rdi
    136e:	e8 f2 fe ff ff       	call   1265 <show_argument>
    1373:	eb e5                	jmp    135a <main+0x79>

Disassembly of section .fini:

0000000000001378 <_fini>:
    1378:	f3 0f 1e fa          	endbr64 
    137c:	48 83 ec 08          	sub    $0x8,%rsp
    1380:	48 83 c4 08          	add    $0x8,%rsp
    1384:	c3                   	ret    
