
secret_leak-O0:     file format elf64-x86-64


Disassembly of section .init:

0000000000001000 <_init>:
    1000:	f3 0f 1e fa          	endbr64 
    1004:	48 83 ec 08          	sub    $0x8,%rsp
    1008:	48 8b 05 d9 2f 00 00 	mov    0x2fd9(%rip),%rax        # 3fe8 <__gmon_start__@Base>
    100f:	48 85 c0             	test   %rax,%rax
    1012:	74 02                	je     1016 <_init+0x16>
    1014:	ff d0                	call   *%rax
    1016:	48 83 c4 08          	add    $0x8,%rsp
    101a:	c3                   	ret    

Disassembly of section .plt:

0000000000001020 <.plt>:
    1020:	ff 35 72 2f 00 00    	push   0x2f72(%rip)        # 3f98 <_GLOBAL_OFFSET_TABLE_+0x8>
    1026:	f2 ff 25 73 2f 00 00 	bnd jmp *0x2f73(%rip)        # 3fa0 <_GLOBAL_OFFSET_TABLE_+0x10>
    102d:	0f 1f 00             	nopl   (%rax)
    1030:	f3 0f 1e fa          	endbr64 
    1034:	68 00 00 00 00       	push   $0x0
    1039:	f2 e9 e1 ff ff ff    	bnd jmp 1020 <_init+0x20>
    103f:	90                   	nop
    1040:	f3 0f 1e fa          	endbr64 
    1044:	68 01 00 00 00       	push   $0x1
    1049:	f2 e9 d1 ff ff ff    	bnd jmp 1020 <_init+0x20>
    104f:	90                   	nop
    1050:	f3 0f 1e fa          	endbr64 
    1054:	68 02 00 00 00       	push   $0x2
    1059:	f2 e9 c1 ff ff ff    	bnd jmp 1020 <_init+0x20>
    105f:	90                   	nop
    1060:	f3 0f 1e fa          	endbr64 
    1064:	68 03 00 00 00       	push   $0x3
    1069:	f2 e9 b1 ff ff ff    	bnd jmp 1020 <_init+0x20>
    106f:	90                   	nop
    1070:	f3 0f 1e fa          	endbr64 
    1074:	68 04 00 00 00       	push   $0x4
    1079:	f2 e9 a1 ff ff ff    	bnd jmp 1020 <_init+0x20>
    107f:	90                   	nop
    1080:	f3 0f 1e fa          	endbr64 
    1084:	68 05 00 00 00       	push   $0x5
    1089:	f2 e9 91 ff ff ff    	bnd jmp 1020 <_init+0x20>
    108f:	90                   	nop

Disassembly of section .plt.got:

0000000000001090 <__cxa_finalize@plt>:
    1090:	f3 0f 1e fa          	endbr64 
    1094:	f2 ff 25 5d 2f 00 00 	bnd jmp *0x2f5d(%rip)        # 3ff8 <__cxa_finalize@GLIBC_2.2.5>
    109b:	0f 1f 44 00 00       	nopl   0x0(%rax,%rax,1)

Disassembly of section .plt.sec:

00000000000010a0 <strncpy@plt>:
    10a0:	f3 0f 1e fa          	endbr64 
    10a4:	f2 ff 25 fd 2e 00 00 	bnd jmp *0x2efd(%rip)        # 3fa8 <strncpy@GLIBC_2.2.5>
    10ab:	0f 1f 44 00 00       	nopl   0x0(%rax,%rax,1)

00000000000010b0 <puts@plt>:
    10b0:	f3 0f 1e fa          	endbr64 
    10b4:	f2 ff 25 f5 2e 00 00 	bnd jmp *0x2ef5(%rip)        # 3fb0 <puts@GLIBC_2.2.5>
    10bb:	0f 1f 44 00 00       	nopl   0x0(%rax,%rax,1)

00000000000010c0 <strlen@plt>:
    10c0:	f3 0f 1e fa          	endbr64 
    10c4:	f2 ff 25 ed 2e 00 00 	bnd jmp *0x2eed(%rip)        # 3fb8 <strlen@GLIBC_2.2.5>
    10cb:	0f 1f 44 00 00       	nopl   0x0(%rax,%rax,1)

00000000000010d0 <__stack_chk_fail@plt>:
    10d0:	f3 0f 1e fa          	endbr64 
    10d4:	f2 ff 25 e5 2e 00 00 	bnd jmp *0x2ee5(%rip)        # 3fc0 <__stack_chk_fail@GLIBC_2.4>
    10db:	0f 1f 44 00 00       	nopl   0x0(%rax,%rax,1)

00000000000010e0 <printf@plt>:
    10e0:	f3 0f 1e fa          	endbr64 
    10e4:	f2 ff 25 dd 2e 00 00 	bnd jmp *0x2edd(%rip)        # 3fc8 <printf@GLIBC_2.2.5>
    10eb:	0f 1f 44 00 00       	nopl   0x0(%rax,%rax,1)

00000000000010f0 <memset@plt>:
    10f0:	f3 0f 1e fa          	endbr64 
    10f4:	f2 ff 25 d5 2e 00 00 	bnd jmp *0x2ed5(%rip)        # 3fd0 <memset@GLIBC_2.2.5>
    10fb:	0f 1f 44 00 00       	nopl   0x0(%rax,%rax,1)

Disassembly of section .text:

0000000000001100 <_start>:
    1100:	f3 0f 1e fa          	endbr64 
    1104:	31 ed                	xor    %ebp,%ebp
    1106:	49 89 d1             	mov    %rdx,%r9
    1109:	5e                   	pop    %rsi
    110a:	48 89 e2             	mov    %rsp,%rdx
    110d:	48 83 e4 f0          	and    $0xfffffffffffffff0,%rsp
    1111:	50                   	push   %rax
    1112:	54                   	push   %rsp
    1113:	45 31 c0             	xor    %r8d,%r8d
    1116:	31 c9                	xor    %ecx,%ecx
    1118:	48 8d 3d c5 01 00 00 	lea    0x1c5(%rip),%rdi        # 12e4 <main>
    111f:	ff 15 b3 2e 00 00    	call   *0x2eb3(%rip)        # 3fd8 <__libc_start_main@GLIBC_2.34>
    1125:	f4                   	hlt    
    1126:	66 2e 0f 1f 84 00 00 	cs nopw 0x0(%rax,%rax,1)
    112d:	00 00 00 

0000000000001130 <deregister_tm_clones>:
    1130:	48 8d 3d d9 2e 00 00 	lea    0x2ed9(%rip),%rdi        # 4010 <__TMC_END__>
    1137:	48 8d 05 d2 2e 00 00 	lea    0x2ed2(%rip),%rax        # 4010 <__TMC_END__>
    113e:	48 39 f8             	cmp    %rdi,%rax
    1141:	74 15                	je     1158 <deregister_tm_clones+0x28>
    1143:	48 8b 05 96 2e 00 00 	mov    0x2e96(%rip),%rax        # 3fe0 <_ITM_deregisterTMCloneTable@Base>
    114a:	48 85 c0             	test   %rax,%rax
    114d:	74 09                	je     1158 <deregister_tm_clones+0x28>
    114f:	ff e0                	jmp    *%rax
    1151:	0f 1f 80 00 00 00 00 	nopl   0x0(%rax)
    1158:	c3                   	ret    
    1159:	0f 1f 80 00 00 00 00 	nopl   0x0(%rax)

0000000000001160 <register_tm_clones>:
    1160:	48 8d 3d a9 2e 00 00 	lea    0x2ea9(%rip),%rdi        # 4010 <__TMC_END__>
    1167:	48 8d 35 a2 2e 00 00 	lea    0x2ea2(%rip),%rsi        # 4010 <__TMC_END__>
    116e:	48 29 fe             	sub    %rdi,%rsi
    1171:	48 89 f0             	mov    %rsi,%rax
    1174:	48 c1 ee 3f          	shr    $0x3f,%rsi
    1178:	48 c1 f8 03          	sar    $0x3,%rax
    117c:	48 01 c6             	add    %rax,%rsi
    117f:	48 d1 fe             	sar    %rsi
    1182:	74 14                	je     1198 <register_tm_clones+0x38>
    1184:	48 8b 05 65 2e 00 00 	mov    0x2e65(%rip),%rax        # 3ff0 <_ITM_registerTMCloneTable@Base>
    118b:	48 85 c0             	test   %rax,%rax
    118e:	74 08                	je     1198 <register_tm_clones+0x38>
    1190:	ff e0                	jmp    *%rax
    1192:	66 0f 1f 44 00 00    	nopw   0x0(%rax,%rax,1)
    1198:	c3                   	ret    
    1199:	0f 1f 80 00 00 00 00 	nopl   0x0(%rax)

00000000000011a0 <__do_global_dtors_aux>:
    11a0:	f3 0f 1e fa          	endbr64 
    11a4:	80 3d 65 2e 00 00 00 	cmpb   $0x0,0x2e65(%rip)        # 4010 <__TMC_END__>
    11ab:	75 2b                	jne    11d8 <__do_global_dtors_aux+0x38>
    11ad:	55                   	push   %rbp
    11ae:	48 83 3d 42 2e 00 00 	cmpq   $0x0,0x2e42(%rip)        # 3ff8 <__cxa_finalize@GLIBC_2.2.5>
    11b5:	00 
    11b6:	48 89 e5             	mov    %rsp,%rbp
    11b9:	74 0c                	je     11c7 <__do_global_dtors_aux+0x27>
    11bb:	48 8b 3d 46 2e 00 00 	mov    0x2e46(%rip),%rdi        # 4008 <__dso_handle>
    11c2:	e8 c9 fe ff ff       	call   1090 <__cxa_finalize@plt>
    11c7:	e8 64 ff ff ff       	call   1130 <deregister_tm_clones>
    11cc:	c6 05 3d 2e 00 00 01 	movb   $0x1,0x2e3d(%rip)        # 4010 <__TMC_END__>
    11d3:	5d                   	pop    %rbp
    11d4:	c3                   	ret    
    11d5:	0f 1f 00             	nopl   (%rax)
    11d8:	c3                   	ret    
    11d9:	0f 1f 80 00 00 00 00 	nopl   0x0(%rax)

00000000000011e0 <frame_dummy>:
    11e0:	f3 0f 1e fa          	endbr64 
    11e4:	e9 77 ff ff ff       	jmp    1160 <register_tm_clones>

00000000000011e9 <init_secret>:
    11e9:	f3 0f 1e fa          	endbr64 
    11ed:	55                   	push   %rbp
    11ee:	48 89 e5             	mov    %rsp,%rbp
    11f1:	48 81 ec 90 00 00 00 	sub    $0x90,%rsp
    11f8:	64 48 8b 04 25 28 00 	mov    %fs:0x28,%rax
    11ff:	00 00 
    1201:	48 89 45 f8          	mov    %rax,-0x8(%rbp)
    1205:	31 c0                	xor    %eax,%eax
    1207:	48 8d 85 70 ff ff ff 	lea    -0x90(%rbp),%rax
    120e:	ba 80 00 00 00       	mov    $0x80,%edx
    1213:	be 41 00 00 00       	mov    $0x41,%esi
    1218:	48 89 c7             	mov    %rax,%rdi
    121b:	e8 d0 fe ff ff       	call   10f0 <memset@plt>
    1220:	c6 45 ef 00          	movb   $0x0,-0x11(%rbp)
    1224:	48 8d 05 d9 0d 00 00 	lea    0xdd9(%rip),%rax        # 2004 <_IO_stdin_used+0x4>
    122b:	48 89 c7             	mov    %rax,%rdi
    122e:	e8 7d fe ff ff       	call   10b0 <puts@plt>
    1233:	90                   	nop
    1234:	48 8b 45 f8          	mov    -0x8(%rbp),%rax
    1238:	64 48 2b 04 25 28 00 	sub    %fs:0x28,%rax
    123f:	00 00 
    1241:	74 05                	je     1248 <init_secret+0x5f>
    1243:	e8 88 fe ff ff       	call   10d0 <__stack_chk_fail@plt>
    1248:	c9                   	leave  
    1249:	c3                   	ret    

000000000000124a <show_argument>:
    124a:	f3 0f 1e fa          	endbr64 
    124e:	55                   	push   %rbp
    124f:	48 89 e5             	mov    %rsp,%rbp
    1252:	48 81 ec b0 00 00 00 	sub    $0xb0,%rsp
    1259:	48 89 bd 58 ff ff ff 	mov    %rdi,-0xa8(%rbp)
    1260:	64 48 8b 04 25 28 00 	mov    %fs:0x28,%rax
    1267:	00 00 
    1269:	48 89 45 f8          	mov    %rax,-0x8(%rbp)
    126d:	31 c0                	xor    %eax,%eax
    126f:	48 8b 85 58 ff ff ff 	mov    -0xa8(%rbp),%rax
    1276:	48 89 c7             	mov    %rax,%rdi
    1279:	e8 42 fe ff ff       	call   10c0 <strlen@plt>
    127e:	89 85 6c ff ff ff    	mov    %eax,-0x94(%rbp)
    1284:	83 bd 6c ff ff ff 00 	cmpl   $0x0,-0x94(%rbp)
    128b:	7e 22                	jle    12af <show_argument+0x65>
    128d:	48 8b 8d 58 ff ff ff 	mov    -0xa8(%rbp),%rcx
    1294:	48 8d 85 70 ff ff ff 	lea    -0x90(%rbp),%rax
    129b:	ba 7f 00 00 00       	mov    $0x7f,%edx
    12a0:	48 89 ce             	mov    %rcx,%rsi
    12a3:	48 89 c7             	mov    %rax,%rdi
    12a6:	e8 f5 fd ff ff       	call   10a0 <strncpy@plt>
    12ab:	c6 45 ef 00          	movb   $0x0,-0x11(%rbp)
    12af:	48 8d 85 70 ff ff ff 	lea    -0x90(%rbp),%rax
    12b6:	48 89 c6             	mov    %rax,%rsi
    12b9:	48 8d 05 61 0d 00 00 	lea    0xd61(%rip),%rax        # 2021 <_IO_stdin_used+0x21>
    12c0:	48 89 c7             	mov    %rax,%rdi
    12c3:	b8 00 00 00 00       	mov    $0x0,%eax
    12c8:	e8 13 fe ff ff       	call   10e0 <printf@plt>
    12cd:	90                   	nop
    12ce:	48 8b 45 f8          	mov    -0x8(%rbp),%rax
    12d2:	64 48 2b 04 25 28 00 	sub    %fs:0x28,%rax
    12d9:	00 00 
    12db:	74 05                	je     12e2 <show_argument+0x98>
    12dd:	e8 ee fd ff ff       	call   10d0 <__stack_chk_fail@plt>
    12e2:	c9                   	leave  
    12e3:	c3                   	ret    

00000000000012e4 <main>:
    12e4:	f3 0f 1e fa          	endbr64 
    12e8:	55                   	push   %rbp
    12e9:	48 89 e5             	mov    %rsp,%rbp
    12ec:	48 83 ec 20          	sub    $0x20,%rsp
    12f0:	89 7d ec             	mov    %edi,-0x14(%rbp)
    12f3:	48 89 75 e0          	mov    %rsi,-0x20(%rbp)
    12f7:	8b 45 ec             	mov    -0x14(%rbp),%eax
    12fa:	89 c6                	mov    %eax,%esi
    12fc:	48 8d 05 28 0d 00 00 	lea    0xd28(%rip),%rax        # 202b <_IO_stdin_used+0x2b>
    1303:	48 89 c7             	mov    %rax,%rdi
    1306:	b8 00 00 00 00       	mov    $0x0,%eax
    130b:	e8 d0 fd ff ff       	call   10e0 <printf@plt>
    1310:	c7 45 fc 00 00 00 00 	movl   $0x0,-0x4(%rbp)
    1317:	eb 56                	jmp    136f <main+0x8b>
    1319:	8b 45 fc             	mov    -0x4(%rbp),%eax
    131c:	48 98                	cltq   
    131e:	48 8d 14 c5 00 00 00 	lea    0x0(,%rax,8),%rdx
    1325:	00 
    1326:	48 8b 45 e0          	mov    -0x20(%rbp),%rax
    132a:	48 01 d0             	add    %rdx,%rax
    132d:	48 8b 00             	mov    (%rax),%rax
    1330:	48 89 c7             	mov    %rax,%rdi
    1333:	e8 88 fd ff ff       	call   10c0 <strlen@plt>
    1338:	48 89 c1             	mov    %rax,%rcx
    133b:	8b 45 fc             	mov    -0x4(%rbp),%eax
    133e:	48 98                	cltq   
    1340:	48 8d 14 c5 00 00 00 	lea    0x0(,%rax,8),%rdx
    1347:	00 
    1348:	48 8b 45 e0          	mov    -0x20(%rbp),%rax
    134c:	48 01 d0             	add    %rdx,%rax
    134f:	48 8b 10             	mov    (%rax),%rdx
    1352:	8b 45 fc             	mov    -0x4(%rbp),%eax
    1355:	89 c6                	mov    %eax,%esi
    1357:	48 8d 05 d6 0c 00 00 	lea    0xcd6(%rip),%rax        # 2034 <_IO_stdin_used+0x34>
    135e:	48 89 c7             	mov    %rax,%rdi
    1361:	b8 00 00 00 00       	mov    $0x0,%eax
    1366:	e8 75 fd ff ff       	call   10e0 <printf@plt>
    136b:	83 45 fc 01          	addl   $0x1,-0x4(%rbp)
    136f:	8b 45 fc             	mov    -0x4(%rbp),%eax
    1372:	3b 45 ec             	cmp    -0x14(%rbp),%eax
    1375:	7c a2                	jl     1319 <main+0x35>
    1377:	b8 00 00 00 00       	mov    $0x0,%eax
    137c:	e8 68 fe ff ff       	call   11e9 <init_secret>
    1381:	83 7d ec 01          	cmpl   $0x1,-0x14(%rbp)
    1385:	7e 13                	jle    139a <main+0xb6>
    1387:	48 8b 45 e0          	mov    -0x20(%rbp),%rax
    138b:	48 83 c0 08          	add    $0x8,%rax
    138f:	48 8b 00             	mov    (%rax),%rax
    1392:	48 89 c7             	mov    %rax,%rdi
    1395:	e8 b0 fe ff ff       	call   124a <show_argument>
    139a:	b8 00 00 00 00       	mov    $0x0,%eax
    139f:	c9                   	leave  
    13a0:	c3                   	ret    

Disassembly of section .fini:

00000000000013a4 <_fini>:
    13a4:	f3 0f 1e fa          	endbr64 
    13a8:	48 83 ec 08          	sub    $0x8,%rsp
    13ac:	48 83 c4 08          	add    $0x8,%rsp
    13b0:	c3                   	ret    
