
secret_leak-O1:     file format elf64-x86-64


Disassembly of section .init:

0000000000001000 <_init>:
    1000:	f3 0f 1e fa          	endbr64 
    1004:	48 83 ec 08          	sub    $0x8,%rsp
    1008:	48 8b 05 d9 2f 00 00 	mov    0x2fd9(%rip),%rax        # 3fe8 <__gmon_start__@Base>
    100f:	48 85 c0             	test   %rax,%rax
    1012:	74 02                	je     1016 <_init+0x16>
    1014:	ff d0                	call   *%rax
    1016:	48 83 c4 08          	add    $0x8,%rsp
    101a:	c3                   	ret    

Disassembly of section .plt:

0000000000001020 <.plt>:
    1020:	ff 35 7a 2f 00 00    	push   0x2f7a(%rip)        # 3fa0 <_GLOBAL_OFFSET_TABLE_+0x8>
    1026:	f2 ff 25 7b 2f 00 00 	bnd jmp *0x2f7b(%rip)        # 3fa8 <_GLOBAL_OFFSET_TABLE_+0x10>
    102d:	0f 1f 00             	nopl   (%rax)
    1030:	f3 0f 1e fa          	endbr64 
    1034:	68 00 00 00 00       	push   $0x0
    1039:	f2 e9 e1 ff ff ff    	bnd jmp 1020 <_init+0x20>
    103f:	90                   	nop
    1040:	f3 0f 1e fa          	endbr64 
    1044:	68 01 00 00 00       	push   $0x1
    1049:	f2 e9 d1 ff ff ff    	bnd jmp 1020 <_init+0x20>
    104f:	90                   	nop
    1050:	f3 0f 1e fa          	endbr64 
    1054:	68 02 00 00 00       	push   $0x2
    1059:	f2 e9 c1 ff ff ff    	bnd jmp 1020 <_init+0x20>
    105f:	90                   	nop
    1060:	f3 0f 1e fa          	endbr64 
    1064:	68 03 00 00 00       	push   $0x3
    1069:	f2 e9 b1 ff ff ff    	bnd jmp 1020 <_init+0x20>
    106f:	90                   	nop
    1070:	f3 0f 1e fa          	endbr64 
    1074:	68 04 00 00 00       	push   $0x4
    1079:	f2 e9 a1 ff ff ff    	bnd jmp 1020 <_init+0x20>
    107f:	90                   	nop

Disassembly of section .plt.got:

0000000000001080 <__cxa_finalize@plt>:
    1080:	f3 0f 1e fa          	endbr64 
    1084:	f2 ff 25 6d 2f 00 00 	bnd jmp *0x2f6d(%rip)        # 3ff8 <__cxa_finalize@GLIBC_2.2.5>
    108b:	0f 1f 44 00 00       	nopl   0x0(%rax,%rax,1)

Disassembly of section .plt.sec:

0000000000001090 <strncpy@plt>:
    1090:	f3 0f 1e fa          	endbr64 
    1094:	f2 ff 25 15 2f 00 00 	bnd jmp *0x2f15(%rip)        # 3fb0 <strncpy@GLIBC_2.2.5>
    109b:	0f 1f 44 00 00       	nopl   0x0(%rax,%rax,1)

00000000000010a0 <puts@plt>:
    10a0:	f3 0f 1e fa          	endbr64 
    10a4:	f2 ff 25 0d 2f 00 00 	bnd jmp *0x2f0d(%rip)        # 3fb8 <puts@GLIBC_2.2.5>
    10ab:	0f 1f 44 00 00       	nopl   0x0(%rax,%rax,1)

00000000000010b0 <strlen@plt>:
    10b0:	f3 0f 1e fa          	endbr64 
    10b4:	f2 ff 25 05 2f 00 00 	bnd jmp *0x2f05(%rip)        # 3fc0 <strlen@GLIBC_2.2.5>
    10bb:	0f 1f 44 00 00       	nopl   0x0(%rax,%rax,1)

00000000000010c0 <__stack_chk_fail@plt>:
    10c0:	f3 0f 1e fa          	endbr64 
    10c4:	f2 ff 25 fd 2e 00 00 	bnd jmp *0x2efd(%rip)        # 3fc8 <__stack_chk_fail@GLIBC_2.4>
    10cb:	0f 1f 44 00 00       	nopl   0x0(%rax,%rax,1)

00000000000010d0 <__printf_chk@plt>:
    10d0:	f3 0f 1e fa          	endbr64 
    10d4:	f2 ff 25 f5 2e 00 00 	bnd jmp *0x2ef5(%rip)        # 3fd0 <__printf_chk@GLIBC_2.3.4>
    10db:	0f 1f 44 00 00       	nopl   0x0(%rax,%rax,1)

Disassembly of section .text:

00000000000010e0 <_start>:
    10e0:	f3 0f 1e fa          	endbr64 
    10e4:	31 ed                	xor    %ebp,%ebp
    10e6:	49 89 d1             	mov    %rdx,%r9
    10e9:	5e                   	pop    %rsi
    10ea:	48 89 e2             	mov    %rsp,%rdx
    10ed:	48 83 e4 f0          	and    $0xfffffffffffffff0,%rsp
    10f1:	50                   	push   %rax
    10f2:	54                   	push   %rsp
    10f3:	45 31 c0             	xor    %r8d,%r8d
    10f6:	31 c9                	xor    %ecx,%ecx
    10f8:	48 8d 3d 5f 01 00 00 	lea    0x15f(%rip),%rdi        # 125e <main>
    10ff:	ff 15 d3 2e 00 00    	call   *0x2ed3(%rip)        # 3fd8 <__libc_start_main@GLIBC_2.34>
    1105:	f4                   	hlt    
    1106:	66 2e 0f 1f 84 00 00 	cs nopw 0x0(%rax,%rax,1)
    110d:	00 00 00 

0000000000001110 <deregister_tm_clones>:
    1110:	48 8d 3d f9 2e 00 00 	lea    0x2ef9(%rip),%rdi        # 4010 <__TMC_END__>
    1117:	48 8d 05 f2 2e 00 00 	lea    0x2ef2(%rip),%rax        # 4010 <__TMC_END__>
    111e:	48 39 f8             	cmp    %rdi,%rax
    1121:	74 15                	je     1138 <deregister_tm_clones+0x28>
    1123:	48 8b 05 b6 2e 00 00 	mov    0x2eb6(%rip),%rax        # 3fe0 <_ITM_deregisterTMCloneTable@Base>
    112a:	48 85 c0             	test   %rax,%rax
    112d:	74 09                	je     1138 <deregister_tm_clones+0x28>
    112f:	ff e0                	jmp    *%rax
    1131:	0f 1f 80 00 00 00 00 	nopl   0x0(%rax)
    1138:	c3                   	ret    
    1139:	0f 1f 80 00 00 00 00 	nopl   0x0(%rax)

0000000000001140 <register_tm_clones>:
    1140:	48 8d 3d c9 2e 00 00 	lea    0x2ec9(%rip),%rdi        # 4010 <__TMC_END__>
    1147:	48 8d 35 c2 2e 00 00 	lea    0x2ec2(%rip),%rsi        # 4010 <__TMC_END__>
    114e:	48 29 fe             	sub    %rdi,%rsi
    1151:	48 89 f0             	mov    %rsi,%rax
    1154:	48 c1 ee 3f          	shr    $0x3f,%rsi
    1158:	48 c1 f8 03          	sar    $0x3,%rax
    115c:	48 01 c6             	add    %rax,%rsi
    115f:	48 d1 fe             	sar    %rsi
    1162:	74 14                	je     1178 <register_tm_clones+0x38>
    1164:	48 8b 05 85 2e 00 00 	mov    0x2e85(%rip),%rax        # 3ff0 <_ITM_registerTMCloneTable@Base>
    116b:	48 85 c0             	test   %rax,%rax
    116e:	74 08                	je     1178 <register_tm_clones+0x38>
    1170:	ff e0                	jmp    *%rax
    1172:	66 0f 1f 44 00 00    	nopw   0x0(%rax,%rax,1)
    1178:	c3                   	ret    
    1179:	0f 1f 80 00 00 00 00 	nopl   0x0(%rax)

0000000000001180 <__do_global_dtors_aux>:
    1180:	f3 0f 1e fa          	endbr64 
    1184:	80 3d 85 2e 00 00 00 	cmpb   $0x0,0x2e85(%rip)        # 4010 <__TMC_END__>
    118b:	75 2b                	jne    11b8 <__do_global_dtors_aux+0x38>
    118d:	55                   	push   %rbp
    118e:	48 83 3d 62 2e 00 00 	cmpq   $0x0,0x2e62(%rip)        # 3ff8 <__cxa_finalize@GLIBC_2.2.5>
    1195:	00 
    1196:	48 89 e5             	mov    %rsp,%rbp
    1199:	74 0c                	je     11a7 <__do_global_dtors_aux+0x27>
    119b:	48 8b 3d 66 2e 00 00 	mov    0x2e66(%rip),%rdi        # 4008 <__dso_handle>
    11a2:	e8 d9 fe ff ff       	call   1080 <__cxa_finalize@plt>
    11a7:	e8 64 ff ff ff       	call   1110 <deregister_tm_clones>
    11ac:	c6 05 5d 2e 00 00 01 	movb   $0x1,0x2e5d(%rip)        # 4010 <__TMC_END__>
    11b3:	5d                   	pop    %rbp
    11b4:	c3                   	ret    
    11b5:	0f 1f 00             	nopl   (%rax)
    11b8:	c3                   	ret    
    11b9:	0f 1f 80 00 00 00 00 	nopl   0x0(%rax)

00000000000011c0 <frame_dummy>:
    11c0:	f3 0f 1e fa          	endbr64 
    11c4:	e9 77 ff ff ff       	jmp    1140 <register_tm_clones>

00000000000011c9 <init_secret>:
    11c9:	f3 0f 1e fa          	endbr64 
    11cd:	48 83 ec 08          	sub    $0x8,%rsp
    11d1:	48 8d 3d 2c 0e 00 00 	lea    0xe2c(%rip),%rdi        # 2004 <_IO_stdin_used+0x4>
    11d8:	e8 c3 fe ff ff       	call   10a0 <puts@plt>
    11dd:	48 83 c4 08          	add    $0x8,%rsp
    11e1:	c3                   	ret    

00000000000011e2 <show_argument>:
    11e2:	f3 0f 1e fa          	endbr64 
    11e6:	53                   	push   %rbx
    11e7:	48 81 ec 90 00 00 00 	sub    $0x90,%rsp
    11ee:	48 89 fb             	mov    %rdi,%rbx
    11f1:	64 48 8b 04 25 28 00 	mov    %fs:0x28,%rax
    11f8:	00 00 
    11fa:	48 89 84 24 88 00 00 	mov    %rax,0x88(%rsp)
    1201:	00 
    1202:	31 c0                	xor    %eax,%eax
    1204:	e8 a7 fe ff ff       	call   10b0 <strlen@plt>
    1209:	85 c0                	test   %eax,%eax
    120b:	7f 35                	jg     1242 <show_argument+0x60>
    120d:	48 89 e2             	mov    %rsp,%rdx
    1210:	48 8d 35 0a 0e 00 00 	lea    0xe0a(%rip),%rsi        # 2021 <_IO_stdin_used+0x21>
    1217:	bf 01 00 00 00       	mov    $0x1,%edi
    121c:	b8 00 00 00 00       	mov    $0x0,%eax
    1221:	e8 aa fe ff ff       	call   10d0 <__printf_chk@plt>
    1226:	48 8b 84 24 88 00 00 	mov    0x88(%rsp),%rax
    122d:	00 
    122e:	64 48 2b 04 25 28 00 	sub    %fs:0x28,%rax
    1235:	00 00 
    1237:	75 20                	jne    1259 <show_argument+0x77>
    1239:	48 81 c4 90 00 00 00 	add    $0x90,%rsp
    1240:	5b                   	pop    %rbx
    1241:	c3                   	ret    
    1242:	48 89 e7             	mov    %rsp,%rdi
    1245:	ba 7f 00 00 00       	mov    $0x7f,%edx
    124a:	48 89 de             	mov    %rbx,%rsi
    124d:	e8 3e fe ff ff       	call   1090 <strncpy@plt>
    1252:	c6 44 24 7f 00       	movb   $0x0,0x7f(%rsp)
    1257:	eb b4                	jmp    120d <show_argument+0x2b>
    1259:	e8 62 fe ff ff       	call   10c0 <__stack_chk_fail@plt>

000000000000125e <main>:
    125e:	f3 0f 1e fa          	endbr64 
    1262:	41 57                	push   %r15
    1264:	41 56                	push   %r14
    1266:	41 55                	push   %r13
    1268:	41 54                	push   %r12
    126a:	55                   	push   %rbp
    126b:	53                   	push   %rbx
    126c:	48 83 ec 08          	sub    $0x8,%rsp
    1270:	41 89 ff             	mov    %edi,%r15d
    1273:	49 89 f4             	mov    %rsi,%r12
    1276:	89 fa                	mov    %edi,%edx
    1278:	48 8d 35 ac 0d 00 00 	lea    0xdac(%rip),%rsi        # 202b <_IO_stdin_used+0x2b>
    127f:	bf 01 00 00 00       	mov    $0x1,%edi
    1284:	b8 00 00 00 00       	mov    $0x0,%eax
    1289:	e8 42 fe ff ff       	call   10d0 <__printf_chk@plt>
    128e:	45 85 ff             	test   %r15d,%r15d
    1291:	7e 3e                	jle    12d1 <main+0x73>
    1293:	45 89 fe             	mov    %r15d,%r14d
    1296:	bb 00 00 00 00       	mov    $0x0,%ebx
    129b:	4c 8d 2d 92 0d 00 00 	lea    0xd92(%rip),%r13        # 2034 <_IO_stdin_used+0x34>
    12a2:	49 8b 2c dc          	mov    (%r12,%rbx,8),%rbp
    12a6:	48 89 ef             	mov    %rbp,%rdi
    12a9:	e8 02 fe ff ff       	call   10b0 <strlen@plt>
    12ae:	49 89 c0             	mov    %rax,%r8
    12b1:	48 89 e9             	mov    %rbp,%rcx
    12b4:	89 da                	mov    %ebx,%edx
    12b6:	4c 89 ee             	mov    %r13,%rsi
    12b9:	bf 01 00 00 00       	mov    $0x1,%edi
    12be:	b8 00 00 00 00       	mov    $0x0,%eax
    12c3:	e8 08 fe ff ff       	call   10d0 <__printf_chk@plt>
    12c8:	48 83 c3 01          	add    $0x1,%rbx
    12cc:	4c 39 f3             	cmp    %r14,%rbx
    12cf:	75 d1                	jne    12a2 <main+0x44>
    12d1:	b8 00 00 00 00       	mov    $0x0,%eax
    12d6:	e8 ee fe ff ff       	call   11c9 <init_secret>
    12db:	41 83 ff 01          	cmp    $0x1,%r15d
    12df:	7f 14                	jg     12f5 <main+0x97>
    12e1:	b8 00 00 00 00       	mov    $0x0,%eax
    12e6:	48 83 c4 08          	add    $0x8,%rsp
    12ea:	5b                   	pop    %rbx
    12eb:	5d                   	pop    %rbp
    12ec:	41 5c                	pop    %r12
    12ee:	41 5d                	pop    %r13
    12f0:	41 5e                	pop    %r14
    12f2:	41 5f                	pop    %r15
    12f4:	c3                   	ret    
    12f5:	49 8b 7c 24 08       	mov    0x8(%r12),%rdi
    12fa:	e8 e3 fe ff ff       	call   11e2 <show_argument>
    12ff:	eb e0                	jmp    12e1 <main+0x83>

Disassembly of section .fini:

0000000000001304 <_fini>:
    1304:	f3 0f 1e fa          	endbr64 
    1308:	48 83 ec 08          	sub    $0x8,%rsp
    130c:	48 83 c4 08          	add    $0x8,%rsp
    1310:	c3                   	ret    
